; Function Attrs: nounwind sspstrong uwtable
define internal range(i64 1, 0) i64 @pst_to_i(i64 noundef %0) #1 {
  %2 = tail call ptr @rb_check_typeddata(i64 noundef %0, ptr noundef nonnull @rb_process_status_type) #27
  %3 = getelementptr inbounds nuw i8, ptr %2, i64 4
  %4 = load i32, ptr %3, align 4, !tbaa !51
  %5 = sext i32 %4 to i64
  %6 = shl nsw i64 %5, 1
  %7 = or disjoint i64 %6, 1
  ret i64 %7
}